target datalayout = "e-m:e-p270:32:32-p271:32:32-p272:64:64-i64:64-i128:128-f80:128-n8:16:32:64-S128"
target triple = "x86_64-pc-linux-gnu"

%struct.Fraig_NodeStruct_t_ = type { i32, i32, i32, i32, i32, i32, i32, ptr, ptr, ptr, ptr, ptr, ptr, ptr, ptr, i32, i32, ptr, ptr, ptr, ptr, ptr, ptr, ptr }
%struct.Fraig_ManStruct_t_ = type { ptr, ptr, ptr, ptr, ptr, ptr, ptr, ptr, ptr, i32, i32, i32, i32, i32, i32, i32, i32, i32, i32, i32, i32, i64, i32, i32, i32, i32, i32, ptr, ptr, ptr, ptr, ptr, i32, ptr, ptr, ptr, ptr, ptr, ptr, i32, ptr, ptr, ptr, ptr, i32, i32, i32, i32, i32, i32, i32, i32, i32, i32, i32, i32, i32, i32, i32, i32, i32, i32, i32, i64, i64, i64, i64, i64, i64, i64, i64, i64, i64, i64, i64 }

; Function Attrs: nounwind uwtable
define i32 @Fraig_MarkTfi_rec(ptr noundef %0, ptr noundef %1) #0 {
  %3 = alloca i32, align 4
  %4 = alloca ptr, align 8
  %5 = alloca ptr, align 8
  store ptr %0, ptr %4, align 8, !tbaa !3
  store ptr %1, ptr %5, align 8, !tbaa !8
  %6 = load ptr, ptr %5, align 8, !tbaa !8
  %7 = getelementptr inbounds nuw %struct.Fraig_NodeStruct_t_, ptr %6, i32 0, i32 4
  %8 = load i32, ptr %7, align 8, !tbaa !54
  %9 = load ptr, ptr %4, align 8, !tbaa !3
  %10 = getelementptr inbounds nuw %struct.Fraig_ManStruct_t_, ptr %9, i32 0, i32 22
  %11 = load i32, ptr %10, align 8, !tbaa !55
  %12 = icmp eq i32 %8, %11
  br i1 %12, label %13, label %14

13:                                               ; preds = %2
  store i32 0, ptr %3, align 4
  br label %43

14:                                               ; preds = %2
  %15 = load ptr, ptr %4, align 8, !tbaa !3
  %16 = getelementptr inbounds nuw %struct.Fraig_ManStruct_t_, ptr %15, i32 0, i32 22
  %17 = load i32, ptr %16, align 8, !tbaa !55
  %18 = load ptr, ptr %5, align 8, !tbaa !8
  %19 = getelementptr inbounds nuw %struct.Fraig_NodeStruct_t_, ptr %18, i32 0, i32 4
  store i32 %17, ptr %19, align 8, !tbaa !54
  %20 = load ptr, ptr %5, align 8, !tbaa !8
  %21 = getelementptr inbounds nuw %struct.Fraig_NodeStruct_t_, ptr %20, i32 0, i32 1
  %22 = load i32, ptr %21, align 4, !tbaa !56
  %23 = icmp sge i32 %22, 0
  br i1 %23, label %24, label %25

24:                                               ; preds = %14
  store i32 1, ptr %3, align 4
  br label %43

25:                                               ; preds = %14
  %26 = load ptr, ptr %4, align 8, !tbaa !3
  %27 = load ptr, ptr %5, align 8, !tbaa !8
  %28 = getelementptr inbounds nuw %struct.Fraig_NodeStruct_t_, ptr %27, i32 0, i32 7
  %29 = load ptr, ptr %28, align 8, !tbaa !57
  %30 = ptrtoint ptr %29 to i64
  %31 = and i64 %30, -2
  %32 = inttoptr i64 %31 to ptr
  %33 = call i32 @Fraig_MarkTfi_rec(ptr noundef %26, ptr noundef %32)
  %34 = load ptr, ptr %4, align 8, !tbaa !3
  %35 = load ptr, ptr %5, align 8, !tbaa !8
  %36 = getelementptr inbounds nuw %struct.Fraig_NodeStruct_t_, ptr %35, i32 0, i32 8
  %37 = load ptr, ptr %36, align 8, !tbaa !58
  %38 = ptrtoint ptr %37 to i64
  %39 = and i64 %38, -2
  %40 = inttoptr i64 %39 to ptr
  %41 = call i32 @Fraig_MarkTfi_rec(ptr noundef %34, ptr noundef %40)
  %42 = add nsw i32 %33, %41
  store i32 %42, ptr %3, align 4
  br label %43

43:                                               ; preds = %25, %24, %13
  %44 = load i32, ptr %3, align 4
  ret i32 %44
}