; Function Attrs: nofree nosync nounwind memory(readwrite, inaccessiblemem: none) uwtable
define i32 @Fraig_MarkTfi_rec(ptr noundef readonly captures(none) %0, ptr noundef captures(none) %1) local_unnamed_addr #4 {
  %3 = getelementptr inbounds nuw i8, ptr %0, i64 128
  %4 = getelementptr inbounds nuw i8, ptr %1, i64 16
  %5 = load i32, ptr %4, align 8, !tbaa !56
  %6 = load i32, ptr %3, align 8, !tbaa !57
  %7 = icmp eq i32 %5, %6
  br i1 %7, label %._crit_edge, label %.lr.ph

.lr.ph:                                           ; preds = %2, %tailrecurse
  %8 = phi i32 [ %27, %tailrecurse ], [ %6, %2 ]
  %9 = phi ptr [ %25, %tailrecurse ], [ %4, %2 ]
  %.tr1012 = phi ptr [ %23, %tailrecurse ], [ %1, %2 ]
  %accumulator.tr11 = phi i32 [ %24, %tailrecurse ], [ 0, %2 ]
  store i32 %8, ptr %9, align 8, !tbaa !56
  %10 = getelementptr inbounds nuw i8, ptr %.tr1012, i64 4
  %11 = load i32, ptr %10, align 4, !tbaa !58
  %12 = icmp sgt i32 %11, -1
  br i1 %12, label %._crit_edge.loopexit, label %tailrecurse

tailrecurse:                                      ; preds = %.lr.ph
  %13 = getelementptr inbounds nuw i8, ptr %.tr1012, i64 32
  %14 = load ptr, ptr %13, align 8, !tbaa !59
  %15 = ptrtoint ptr %14 to i64
  %16 = and i64 %15, -2
  %17 = inttoptr i64 %16 to ptr
  %18 = tail call i32 @Fraig_MarkTfi_rec(ptr noundef nonnull %0, ptr noundef %17)
  %19 = getelementptr inbounds nuw i8, ptr %.tr1012, i64 40
  %20 = load ptr, ptr %19, align 8, !tbaa !60
  %21 = ptrtoint ptr %20 to i64
  %22 = and i64 %21, -2
  %23 = inttoptr i64 %22 to ptr
  %24 = add nsw i32 %18, %accumulator.tr11
  %25 = getelementptr inbounds nuw i8, ptr %23, i64 16
  %26 = load i32, ptr %25, align 8, !tbaa !56
  %27 = load i32, ptr %3, align 8, !tbaa !57
  %28 = icmp eq i32 %26, %27
  br i1 %28, label %._crit_edge.loopexit, label %.lr.ph

._crit_edge.loopexit:                             ; preds = %.lr.ph, %tailrecurse
  %accumulator.tr.lcssa.ph = phi i32 [ %24, %tailrecurse ], [ %accumulator.tr11, %.lr.ph ]
  %.0.ph = phi i32 [ 0, %tailrecurse ], [ 1, %.lr.ph ]
  %29 = add nsw i32 %.0.ph, %accumulator.tr.lcssa.ph
  br label %._crit_edge

._crit_edge:                                      ; preds = %._crit_edge.loopexit, %2
  %accumulator.ret.tr = phi i32 [ 0, %2 ], [ %29, %._crit_edge.loopexit ]
  ret i32 %accumulator.ret.tr
}